; Function Attrs: nounwind uwtable
define noalias ptr @l_Lean_Elab_Term_mkPPairs(ptr noundef %0, ptr noundef %1, ptr noundef %2) local_unnamed_addr #0 {
lean_dec.exit:
  %3 = getelementptr i8, ptr %0, i64 8
  %.val = load i64, ptr %3, align 8, !tbaa !12
  %4 = and i64 %.val, 9223372036854775807
  %5 = icmp eq i64 %4, 0
  %6 = shl i64 %.val, 1
  %7 = add i64 %6, -1
  %8 = inttoptr i64 %7 to ptr
  %.1.i = select i1 %5, ptr inttoptr (i64 1 to ptr), ptr %8
  %9 = tail call ptr @l_Array_back_x21___rarg(ptr noundef nonnull inttoptr (i64 1 to ptr), ptr noundef nonnull %0) #6
  %10 = tail call ptr @l_Lean_Elab_Term_mkPPairs_loop(ptr noundef nonnull %0, ptr noundef nonnull %.1.i, ptr noundef %9, ptr noundef %1, ptr noundef %2)
  ret ptr %10
}